target datalayout = "e-m:e-p270:32:32-p271:32:32-p272:64:64-i64:64-i128:128-f80:128-n8:16:32:64-S128"
target triple = "x86_64-pc-linux-gnu"

%struct.zrangespec = type { double, double, i32, i32 }

@.str.1 = private unnamed_addr constant [9 x i8] c"t_zset.c\00", align 1
@.str.3 = private unnamed_addr constant [13 x i8] c"sptr != NULL\00", align 1

; Function Attrs: nounwind uwtable
define dso_local double @zzlStrtod(ptr noundef %0, i32 noundef %1) #0 {
  %3 = alloca ptr, align 8
  %4 = alloca i32, align 4
  %5 = alloca [128 x i8], align 16
  store ptr %0, ptr %3, align 8, !tbaa !11
  store i32 %1, ptr %4, align 4, !tbaa !5
  call void @llvm.lifetime.start.p0(i64 128, ptr %5) #12
  %6 = load i32, ptr %4, align 4, !tbaa !5
  %7 = zext i32 %6 to i64
  %8 = icmp ugt i64 %7, 127
  br i1 %8, label %9, label %10

9:                                                ; preds = %2
  store i32 127, ptr %4, align 4, !tbaa !5
  br label %10

10:                                               ; preds = %9, %2
  %11 = getelementptr inbounds [128 x i8], ptr %5, i64 0, i64 0
  %12 = load ptr, ptr %3, align 8, !tbaa !11
  %13 = load i32, ptr %4, align 4, !tbaa !5
  %14 = zext i32 %13 to i64
  call void @llvm.memcpy.p0.p0.i64(ptr align 16 %11, ptr align 1 %12, i64 %14, i1 false)
  %15 = load i32, ptr %4, align 4, !tbaa !5
  %16 = zext i32 %15 to i64
  %17 = getelementptr inbounds nuw [128 x i8], ptr %5, i64 0, i64 %16
  store i8 0, ptr %17, align 1, !tbaa !86
  %18 = getelementptr inbounds [128 x i8], ptr %5, i64 0, i64 0
  %19 = call double @fast_float_strtod(ptr noundef %18, ptr noundef null)
  call void @llvm.lifetime.end.p0(i64 128, ptr %5) #12
  ret double %19
}

; Function Attrs: nounwind uwtable
define dso_local i32 @zslValueLteMax(double noundef %0, ptr noundef %1) #0 {
  %3 = alloca double, align 8
  %4 = alloca ptr, align 8
  store double %0, ptr %3, align 8, !tbaa !9
  store ptr %1, ptr %4, align 8, !tbaa !45
  %5 = load ptr, ptr %4, align 8, !tbaa !45
  %6 = getelementptr inbounds nuw %struct.zrangespec, ptr %5, i32 0, i32 3
  %7 = load i32, ptr %6, align 4, !tbaa !49
  %8 = icmp ne i32 %7, 0
  br i1 %8, label %9, label %16

9:                                                ; preds = %2
  %10 = load double, ptr %3, align 8, !tbaa !9
  %11 = load ptr, ptr %4, align 8, !tbaa !45
  %12 = getelementptr inbounds nuw %struct.zrangespec, ptr %11, i32 0, i32 1
  %13 = load double, ptr %12, align 8, !tbaa !50
  %14 = fcmp olt double %10, %13
  %15 = zext i1 %14 to i32
  br label %23

16:                                               ; preds = %2
  %17 = load double, ptr %3, align 8, !tbaa !9
  %18 = load ptr, ptr %4, align 8, !tbaa !45
  %19 = getelementptr inbounds nuw %struct.zrangespec, ptr %18, i32 0, i32 1
  %20 = load double, ptr %19, align 8, !tbaa !50
  %21 = fcmp ole double %17, %20
  %22 = zext i1 %21 to i32
  br label %23

23:                                               ; preds = %16, %9
  %24 = phi i32 [ %15, %9 ], [ %22, %16 ]
  ret i32 %24
}

; Function Attrs: nounwind uwtable
define dso_local double @zzlGetScore(ptr noundef %0) #0 {
  %2 = alloca ptr, align 8
  %3 = alloca ptr, align 8
  %4 = alloca i32, align 4
  %5 = alloca i64, align 8
  %6 = alloca double, align 8
  store ptr %0, ptr %2, align 8, !tbaa !11
  call void @llvm.lifetime.start.p0(i64 8, ptr %3) #12
  call void @llvm.lifetime.start.p0(i64 4, ptr %4) #12
  call void @llvm.lifetime.start.p0(i64 8, ptr %5) #12
  call void @llvm.lifetime.start.p0(i64 8, ptr %6) #12
  %7 = load ptr, ptr %2, align 8, !tbaa !11
  %8 = icmp ne ptr %7, null
  %9 = xor i1 %8, true
  %10 = xor i1 %9, true
  %11 = zext i1 %10 to i32
  %12 = sext i32 %11 to i64
  %13 = call i64 @llvm.expect.i64(i64 %12, i64 1)
  %14 = icmp ne i64 %13, 0
  br i1 %14, label %15, label %16

15:                                               ; preds = %1
  br label %18

16:                                               ; preds = %1
  call void @_serverAssert(ptr noundef @.str.3, ptr noundef @.str.1, i32 noundef 785)
  call void @abort() #14
  unreachable

17:                                               ; No predecessors!
  br label %18

18:                                               ; preds = %17, %15
  %19 = load ptr, ptr %2, align 8, !tbaa !11
  %20 = call ptr @lpGetValue(ptr noundef %19, ptr noundef %4, ptr noundef %5)
  store ptr %20, ptr %3, align 8, !tbaa !11
  %21 = load ptr, ptr %3, align 8, !tbaa !11
  %22 = icmp ne ptr %21, null
  br i1 %22, label %23, label %27

23:                                               ; preds = %18
  %24 = load ptr, ptr %3, align 8, !tbaa !11
  %25 = load i32, ptr %4, align 4, !tbaa !5
  %26 = call double @zzlStrtod(ptr noundef %24, i32 noundef %25)
  store double %26, ptr %6, align 8, !tbaa !9
  br label %30

27:                                               ; preds = %18
  %28 = load i64, ptr %5, align 8, !tbaa !99
  %29 = sitofp i64 %28 to double
  store double %29, ptr %6, align 8, !tbaa !9
  br label %30

30:                                               ; preds = %27, %23
  %31 = load double, ptr %6, align 8, !tbaa !9
  call void @llvm.lifetime.end.p0(i64 8, ptr %6) #12
  call void @llvm.lifetime.end.p0(i64 8, ptr %5) #12
  call void @llvm.lifetime.end.p0(i64 4, ptr %4) #12
  call void @llvm.lifetime.end.p0(i64 8, ptr %3) #12
  ret double %31
}

; Function Attrs: nounwind uwtable
define dso_local ptr @zzlDeleteRangeByScore(ptr noundef %0, ptr noundef %1, ptr noundef %2) #0 {
  %4 = alloca ptr, align 8
  %5 = alloca ptr, align 8
  %6 = alloca ptr, align 8
  %7 = alloca ptr, align 8
  %8 = alloca ptr, align 8
  %9 = alloca ptr, align 8
  %10 = alloca double, align 8
  %11 = alloca i64, align 8
  %12 = alloca i32, align 4
  store ptr %0, ptr %5, align 8, !tbaa !11
  store ptr %1, ptr %6, align 8, !tbaa !45
  store ptr %2, ptr %7, align 8, !tbaa !108
  call void @llvm.lifetime.start.p0(i64 8, ptr %8) #12
  call void @llvm.lifetime.start.p0(i64 8, ptr %9) #12
  call void @llvm.lifetime.start.p0(i64 8, ptr %10) #12
  call void @llvm.lifetime.start.p0(i64 8, ptr %11) #12
  store i64 0, ptr %11, align 8, !tbaa !31
  %13 = load ptr, ptr %7, align 8, !tbaa !108
  %14 = icmp ne ptr %13, null
  br i1 %14, label %15, label %17

15:                                               ; preds = %3
  %16 = load ptr, ptr %7, align 8, !tbaa !108
  store i64 0, ptr %16, align 8, !tbaa !31
  br label %17

17:                                               ; preds = %15, %3
  %18 = load ptr, ptr %5, align 8, !tbaa !11
  %19 = load ptr, ptr %6, align 8, !tbaa !45
  %20 = call ptr @zzlFirstInRange(ptr noundef %18, ptr noundef %19)
  store ptr %20, ptr %8, align 8, !tbaa !11
  %21 = load ptr, ptr %8, align 8, !tbaa !11
  %22 = icmp eq ptr %21, null
  br i1 %22, label %23, label %25

23:                                               ; preds = %17
  %24 = load ptr, ptr %5, align 8, !tbaa !11
  store ptr %24, ptr %4, align 8
  store i32 1, ptr %12, align 4
  br label %58

25:                                               ; preds = %17
  br label %26

26:                                               ; preds = %49, %25
  %27 = load ptr, ptr %8, align 8, !tbaa !11
  %28 = icmp ne ptr %27, null
  br i1 %28, label %29, label %34

29:                                               ; preds = %26
  %30 = load ptr, ptr %5, align 8, !tbaa !11
  %31 = load ptr, ptr %8, align 8, !tbaa !11
  %32 = call ptr @lpNext(ptr noundef %30, ptr noundef %31)
  store ptr %32, ptr %9, align 8, !tbaa !11
  %33 = icmp ne ptr %32, null
  br label %34

34:                                               ; preds = %29, %26
  %35 = phi i1 [ false, %26 ], [ %33, %29 ]
  br i1 %35, label %36, label %50

36:                                               ; preds = %34
  %37 = load ptr, ptr %9, align 8, !tbaa !11
  %38 = call double @zzlGetScore(ptr noundef %37)
  store double %38, ptr %10, align 8, !tbaa !9
  %39 = load double, ptr %10, align 8, !tbaa !9
  %40 = load ptr, ptr %6, align 8, !tbaa !45
  %41 = call i32 @zslValueLteMax(double noundef %39, ptr noundef %40)
  %42 = icmp ne i32 %41, 0
  br i1 %42, label %43, label %48

43:                                               ; preds = %36
  %44 = load ptr, ptr %5, align 8, !tbaa !11
  %45 = call ptr @lpDeleteRangeWithEntry(ptr noundef %44, ptr noundef %8, i64 noundef 2)
  store ptr %45, ptr %5, align 8, !tbaa !11
  %46 = load i64, ptr %11, align 8, !tbaa !31
  %47 = add i64 %46, 1
  store i64 %47, ptr %11, align 8, !tbaa !31
  br label %49

48:                                               ; preds = %36
  br label %50

49:                                               ; preds = %43
  br label %26, !llvm.loop !110

50:                                               ; preds = %48, %34
  %51 = load ptr, ptr %7, align 8, !tbaa !108
  %52 = icmp ne ptr %51, null
  br i1 %52, label %53, label %56

53:                                               ; preds = %50
  %54 = load i64, ptr %11, align 8, !tbaa !31
  %55 = load ptr, ptr %7, align 8, !tbaa !108
  store i64 %54, ptr %55, align 8, !tbaa !31
  br label %56

56:                                               ; preds = %53, %50
  %57 = load ptr, ptr %5, align 8, !tbaa !11
  store ptr %57, ptr %4, align 8
  store i32 1, ptr %12, align 4
  br label %58

58:                                               ; preds = %56, %23
  call void @llvm.lifetime.end.p0(i64 8, ptr %11) #12
  call void @llvm.lifetime.end.p0(i64 8, ptr %10) #12
  call void @llvm.lifetime.end.p0(i64 8, ptr %9) #12
  call void @llvm.lifetime.end.p0(i64 8, ptr %8) #12
  %59 = load ptr, ptr %4, align 8
  ret ptr %59
}