; Function Attrs: nounwind uwtable
define dso_local ptr @zzlDeleteRangeByScore(ptr noundef %0, ptr noundef readonly captures(none) %1, ptr noundef writeonly captures(address_is_null) %2) local_unnamed_addr #0 {
  %4 = alloca [128 x i8], align 16
  %5 = alloca i32, align 4
  %6 = alloca i64, align 8
  %7 = alloca ptr, align 8
  call void @llvm.lifetime.start.p0(i64 8, ptr nonnull %7) #18
  %.not = icmp eq ptr %2, null
  br i1 %.not, label %9, label %8

8:                                                ; preds = %3
  store i64 0, ptr %2, align 8, !tbaa !26
  br label %9

9:                                                ; preds = %8, %3
  %10 = tail call ptr @zzlFirstInRange(ptr noundef %0, ptr noundef %1)
  store ptr %10, ptr %7, align 8, !tbaa !9
  %11 = icmp eq ptr %10, null
  br i1 %11, label %35, label %.preheader

.preheader:                                       ; preds = %9
  %12 = getelementptr inbounds nuw i8, ptr %1, i64 20
  %13 = getelementptr inbounds nuw i8, ptr %1, i64 8
  br label %14

14:                                               ; preds = %.preheader, %31
  %.025 = phi i64 [ 0, %.preheader ], [ %33, %31 ]
  %.01624 = phi ptr [ %0, %.preheader ], [ %32, %31 ]
  %15 = phi ptr [ %10, %.preheader ], [ %.pr, %31 ]
  %16 = call ptr @lpNext(ptr noundef %.01624, ptr noundef nonnull %15) #18
  %.not21 = icmp eq ptr %16, null
  br i1 %.not21, label %.critedge, label %17

17:                                               ; preds = %14
  call void @llvm.lifetime.start.p0(i64 4, ptr nonnull %5) #18
  call void @llvm.lifetime.start.p0(i64 8, ptr nonnull %6) #18
  %18 = call ptr @lpGetValue(ptr noundef nonnull %16, ptr noundef nonnull %5, ptr noundef nonnull %6) #18
  %.not7.i = icmp eq ptr %18, null
  br i1 %.not7.i, label %24, label %19

19:                                               ; preds = %17
  %20 = load i32, ptr %5, align 4, !tbaa !78
  call void @llvm.lifetime.start.p0(i64 128, ptr nonnull %4) #18
  %spec.store.select.i.i = call i32 @llvm.umin.i32(i32 %20, i32 127)
  %21 = zext nneg i32 %spec.store.select.i.i to i64
  call void @llvm.memcpy.p0.p0.i64(ptr nonnull align 16 %4, ptr nonnull readonly align 1 %18, i64 %21, i1 false)
  %22 = getelementptr inbounds nuw [128 x i8], ptr %4, i64 0, i64 %21
  store i8 0, ptr %22, align 1, !tbaa !77
  %23 = call double @fast_float_strtod(ptr noundef nonnull %4, ptr noundef null) #18
  call void @llvm.lifetime.end.p0(i64 128, ptr nonnull %4) #18
  br label %zzlGetScore.exit

24:                                               ; preds = %17
  %25 = load i64, ptr %6, align 8, !tbaa !88
  %26 = sitofp i64 %25 to double
  br label %zzlGetScore.exit

zzlGetScore.exit:                                 ; preds = %19, %24
  %.0.i = phi double [ %23, %19 ], [ %26, %24 ]
  call void @llvm.lifetime.end.p0(i64 8, ptr nonnull %6) #18
  call void @llvm.lifetime.end.p0(i64 4, ptr nonnull %5) #18
  %27 = load i32, ptr %12, align 4, !tbaa !44
  %.not.i23 = icmp eq i32 %27, 0
  %28 = load double, ptr %13, align 8, !tbaa !45
  %29 = fcmp uge double %.0.i, %28
  %30 = fcmp ugt double %.0.i, %28
  %.in.i = select i1 %.not.i23, i1 %30, i1 %29
  br i1 %.in.i, label %.critedge, label %31

31:                                               ; preds = %zzlGetScore.exit
  %32 = call ptr @lpDeleteRangeWithEntry(ptr noundef %.01624, ptr noundef nonnull %7, i64 noundef 2) #18
  %33 = add i64 %.025, 1
  %.pr = load ptr, ptr %7, align 8, !tbaa !9
  %.not20 = icmp eq ptr %.pr, null
  br i1 %.not20, label %.critedge, label %14, !llvm.loop !95

.critedge:                                        ; preds = %31, %zzlGetScore.exit, %14
  %.016.lcssa = phi ptr [ %32, %31 ], [ %.01624, %zzlGetScore.exit ], [ %.01624, %14 ]
  %.0.lcssa = phi i64 [ %33, %31 ], [ %.025, %zzlGetScore.exit ], [ %.025, %14 ]
  br i1 %.not, label %35, label %34

34:                                               ; preds = %.critedge
  store i64 %.0.lcssa, ptr %2, align 8, !tbaa !26
  br label %35

35:                                               ; preds = %.critedge, %34, %9
  %.015 = phi ptr [ %0, %9 ], [ %.016.lcssa, %34 ], [ %.016.lcssa, %.critedge ]
  call void @llvm.lifetime.end.p0(i64 8, ptr nonnull %7) #18
  ret ptr %.015
}